target datalayout = "e-m:e-p270:32:32-p271:32:32-p272:64:64-i64:64-i128:128-f80:128-n8:16:32:64-S128"
target triple = "x86_64-pc-linux-gnu"

%struct.Node = type { i32 }

@.str.1 = private unnamed_addr constant [10 x i8] c"foreign.c\00", align 1
@restrict_nonsystem_relation_kind = external global i32, align 4
@.str.7 = private unnamed_addr constant [49 x i8] c"access to non-system foreign table is restricted\00", align 1
@__func__.GetFdwRoutine = private unnamed_addr constant [14 x i8] c"GetFdwRoutine\00", align 1
@.str.8 = private unnamed_addr constant [77 x i8] c"foreign-data wrapper handler function %u did not return an FdwRoutine struct\00", align 1

; Function Attrs: inlinehint nounwind uwtable
define internal ptr @DatumGetPointer(i64 noundef %0) #3 {
  %2 = alloca i64, align 8
  store i64 %0, ptr %2, align 8
  %3 = load i64, ptr %2, align 8
  %4 = inttoptr i64 %3 to ptr
  ret ptr %4
}

; Function Attrs: nounwind uwtable
define dso_local ptr @GetFdwRoutine(i32 noundef %0) #0 {
  %2 = alloca i32, align 4
  %3 = alloca i64, align 8
  %4 = alloca ptr, align 8
  store i32 %0, ptr %2, align 4
  call void @llvm.lifetime.start.p0(i64 8, ptr %3) #9
  call void @llvm.lifetime.start.p0(i64 8, ptr %4) #9
  %5 = load i32, ptr @restrict_nonsystem_relation_kind, align 4
  %6 = and i32 %5, 2
  %7 = icmp ne i32 %6, 0
  %8 = zext i1 %7 to i32
  %9 = icmp ne i32 %8, 0
  %10 = zext i1 %9 to i32
  %11 = sext i32 %10 to i64
  %12 = call i64 @llvm.expect.i64(i64 %11, i64 0)
  %13 = icmp ne i64 %12, 0
  br i1 %13, label %14, label %26

14:                                               ; preds = %1
  br label %15

15:                                               ; preds = %14
  br i1 true, label %16, label %18

16:                                               ; preds = %15
  %17 = call zeroext i1 @errstart_cold(i32 noundef 21, ptr noundef null) #10
  br i1 %17, label %20, label %23

18:                                               ; preds = %15
  %19 = call zeroext i1 @errstart(i32 noundef 21, ptr noundef null)
  br i1 %19, label %20, label %23

20:                                               ; preds = %18, %16
  %21 = call i32 @errcode(i32 noundef 325)
  %22 = call i32 (ptr, ...) @errmsg(ptr noundef @.str.7)
  call void @errfinish(ptr noundef @.str.1, i32 noundef 336, ptr noundef @__func__.GetFdwRoutine)
  br label %23

23:                                               ; preds = %20, %18, %16
  unreachable

24:                                               ; No predecessors!
  br label %25

25:                                               ; preds = %24
  br label %26

26:                                               ; preds = %25, %1
  %27 = load i32, ptr %2, align 4
  %28 = call i64 @OidFunctionCall0Coll(i32 noundef %27, i32 noundef 0)
  store i64 %28, ptr %3, align 8
  %29 = load i64, ptr %3, align 8
  %30 = call ptr @DatumGetPointer(i64 noundef %29)
  store ptr %30, ptr %4, align 8
  %31 = load ptr, ptr %4, align 8
  %32 = icmp eq ptr %31, null
  br i1 %32, label %38, label %33

33:                                               ; preds = %26
  %34 = load ptr, ptr %4, align 8
  %35 = getelementptr inbounds nuw %struct.Node, ptr %34, i32 0, i32 0
  %36 = load i32, ptr %35, align 4
  %37 = icmp eq i32 %36, 443
  br i1 %37, label %50, label %38

38:                                               ; preds = %33, %26
  br label %39

39:                                               ; preds = %38
  br i1 true, label %40, label %42

40:                                               ; preds = %39
  %41 = call zeroext i1 @errstart_cold(i32 noundef 21, ptr noundef null) #10
  br i1 %41, label %44, label %47

42:                                               ; preds = %39
  %43 = call zeroext i1 @errstart(i32 noundef 21, ptr noundef null)
  br i1 %43, label %44, label %47

44:                                               ; preds = %42, %40
  %45 = load i32, ptr %2, align 4
  %46 = call i32 (ptr, ...) @errmsg_internal(ptr noundef @.str.8, i32 noundef %45)
  call void @errfinish(ptr noundef @.str.1, i32 noundef 344, ptr noundef @__func__.GetFdwRoutine)
  br label %47

47:                                               ; preds = %44, %42, %40
  unreachable

48:                                               ; No predecessors!
  br label %49

49:                                               ; preds = %48
  br label %50

50:                                               ; preds = %49, %33
  %51 = load ptr, ptr %4, align 8
  call void @llvm.lifetime.end.p0(i64 8, ptr %4) #9
  call void @llvm.lifetime.end.p0(i64 8, ptr %3) #9
  ret ptr %51
}