; Function Attrs: nounwind uwtable
define dso_local nonnull ptr @GetFdwRoutine(i32 noundef %0) local_unnamed_addr #0 {
  %2 = load i32, ptr @restrict_nonsystem_relation_kind, align 4
  %3 = and i32 %2, 2
  %.not = icmp eq i32 %3, 0
  br i1 %.not, label %8, label %4, !prof !6

4:                                                ; preds = %1
  %5 = tail call zeroext i1 @errstart_cold(i32 noundef 21, ptr noundef null) #9
  tail call void @llvm.assume(i1 %5)
  %6 = tail call i32 @errcode(i32 noundef 325) #8
  %7 = tail call i32 (ptr, ...) @errmsg(ptr noundef nonnull @.str.7) #8
  tail call void @errfinish(ptr noundef nonnull @.str.1, i32 noundef 336, ptr noundef nonnull @__func__.GetFdwRoutine) #8
  unreachable

8:                                                ; preds = %1
  %9 = tail call i64 @OidFunctionCall0Coll(i32 noundef %0, i32 noundef 0) #8
  %10 = inttoptr i64 %9 to ptr
  %11 = icmp eq i64 %9, 0
  br i1 %11, label %15, label %12

12:                                               ; preds = %8
  %13 = load i32, ptr %10, align 4
  %14 = icmp eq i32 %13, 443
  br i1 %14, label %18, label %15

15:                                               ; preds = %12, %8
  %16 = tail call zeroext i1 @errstart_cold(i32 noundef 21, ptr noundef null) #9
  tail call void @llvm.assume(i1 %16)
  %17 = tail call i32 (ptr, ...) @errmsg_internal(ptr noundef nonnull @.str.8, i32 noundef %0) #8
  tail call void @errfinish(ptr noundef nonnull @.str.1, i32 noundef 344, ptr noundef nonnull @__func__.GetFdwRoutine) #8
  unreachable

18:                                               ; preds = %12
  ret ptr %10
}